; Function Attrs: nounwind uwtable
define dso_local range(i32 -1, 1) i32 @slurm_send_recv_node_msg(ptr noundef %0, ptr noundef initializes((128, 136)) %1, i32 noundef %2) local_unnamed_addr #1 {
  %4 = getelementptr inbounds nuw i8, ptr %1, i64 128
  store ptr null, ptr %4, align 8
  %5 = tail call i32 @slurm_open_stream(ptr noundef %0, i1 noundef zeroext false) #19
  %6 = icmp slt i32 %5, 0
  br i1 %6, label %7, label %14

7:                                                ; preds = %3
  %8 = load i64, ptr getelementptr inbounds nuw (i8, ptr @slurm_conf, i64 320), align 8
  %9 = and i64 %8, 1024
  %.not = icmp eq i64 %9, 0
  br i1 %.not, label %_send_and_recv_msg.exit, label %10

10:                                               ; preds = %7
  %11 = tail call i32 @get_log_level() #19
  %12 = icmp sgt i32 %11, 3
  br i1 %12, label %13, label %_send_and_recv_msg.exit

13:                                               ; preds = %10
  tail call void (i32, ptr, ...) @log_var(i32 noundef 4, ptr noundef nonnull @.str.10, ptr noundef nonnull @__func__.slurm_send_recv_node_msg, ptr noundef %0) #19
  br label %_send_and_recv_msg.exit

14:                                               ; preds = %3
  tail call void @slurm_msg_t_init(ptr noundef nonnull %1) #19
  %15 = getelementptr inbounds nuw i8, ptr %0, i64 176
  %16 = load ptr, ptr %15, align 8
  %.not.i.i = icmp eq ptr %16, null
  br i1 %.not.i.i, label %21, label %17

17:                                               ; preds = %14
  %18 = getelementptr inbounds nuw i8, ptr %16, i64 60
  %19 = load i32, ptr %18, align 4
  %20 = getelementptr inbounds nuw i8, ptr %1, i64 176
  store ptr %16, ptr %20, align 8
  br label %21

21:                                               ; preds = %17, %14
  %.010.i.i = phi i32 [ %19, %17 ], [ %5, %14 ]
  %22 = tail call i32 @slurm_send_node_msg(i32 noundef %.010.i.i, ptr noundef nonnull %0)
  %23 = icmp slt i32 %22, 0
  br i1 %23, label %slurm_send_recv_msg.exit.i, label %24

24:                                               ; preds = %21
  %25 = tail call i32 @slurm_receive_msg(i32 noundef %.010.i.i, ptr noundef nonnull %1, i32 noundef %2)
  %.not12.i.i = icmp ne i32 %25, 0
  %..i.i = sext i1 %.not12.i.i to i32
  br label %slurm_send_recv_msg.exit.i

slurm_send_recv_msg.exit.i:                       ; preds = %24, %21
  %.0.i.i = phi i32 [ -1, %21 ], [ %..i.i, %24 ]
  %26 = tail call i32 @close(i32 noundef range(i32 0, -2147483648) %5) #19
  %.not.i = icmp eq i32 %26, 0
  br i1 %.not.i, label %_send_and_recv_msg.exit, label %27

27:                                               ; preds = %slurm_send_recv_msg.exit.i
  %28 = tail call i32 (ptr, ...) @error(ptr noundef nonnull @.str.100, ptr noundef nonnull @__func__._send_and_recv_msg, i32 noundef range(i32 0, -2147483648) %5) #19
  br label %_send_and_recv_msg.exit

_send_and_recv_msg.exit:                          ; preds = %27, %slurm_send_recv_msg.exit.i, %7, %13, %10
  %.0 = phi i32 [ -1, %10 ], [ -1, %13 ], [ -1, %7 ], [ %.0.i.i, %slurm_send_recv_msg.exit.i ], [ %.0.i.i, %27 ]
  ret i32 %.0
}